target datalayout = "e-m:e-p270:32:32-p271:32:32-p272:64:64-i64:64-i128:128-f80:128-n8:16:32:64-S128"
target triple = "x86_64-pc-linux-gnu"

%struct.BackendGlobalData = type <{ ptr, ptr, i8, i8, i8, i8, i8, i8, i8, i8, i8, [3 x i8], i32, ptr, ptr, ptr, ptr, ptr, ptr, ptr, ptr, ptr, ptr, ptr, ptr, ptr, i32, %struct.jvmtiCapabilities, i8, [3 x i8], %struct.jvmtiEventCallbacks, ptr, ptr, ptr, ptr, ptr, ptr, ptr, i32, [4 x i8], ptr, i64, i32, [4 x i8], ptr, i32, i32, i8, i8, [6 x i8] }>
%struct.jvmtiCapabilities = type { i64, i64 }
%struct.jvmtiEventCallbacks = type { ptr, ptr, ptr, ptr, ptr, ptr, ptr, ptr, ptr, ptr, ptr, ptr, ptr, ptr, ptr, ptr, ptr, ptr, ptr, ptr, ptr, ptr, ptr, ptr, ptr, ptr, ptr, ptr, ptr, ptr, ptr, ptr, ptr, ptr, ptr, ptr, ptr, ptr, ptr }
%struct.jvmtiInterface_1_ = type { ptr, ptr, ptr, ptr, ptr, ptr, ptr, ptr, ptr, ptr, ptr, ptr, ptr, ptr, ptr, ptr, ptr, ptr, ptr, ptr, ptr, ptr, ptr, ptr, ptr, ptr, ptr, ptr, ptr, ptr, ptr, ptr, ptr, ptr, ptr, ptr, ptr, ptr, ptr, ptr, ptr, ptr, ptr, ptr, ptr, ptr, ptr, ptr, ptr, ptr, ptr, ptr, ptr, ptr, ptr, ptr, ptr, ptr, ptr, ptr, ptr, ptr, ptr, ptr, ptr, ptr, ptr, ptr, ptr, ptr, ptr, ptr, ptr, ptr, ptr, ptr, ptr, ptr, ptr, ptr, ptr, ptr, ptr, ptr, ptr, ptr, ptr, ptr, ptr, ptr, ptr, ptr, ptr, ptr, ptr, ptr, ptr, ptr, ptr, ptr, ptr, ptr, ptr, ptr, ptr, ptr, ptr, ptr, ptr, ptr, ptr, ptr, ptr, ptr, ptr, ptr, ptr, ptr, ptr, ptr, ptr, ptr, ptr, ptr, ptr, ptr, ptr, ptr, ptr, ptr, ptr, ptr, ptr, ptr, ptr, ptr, ptr, ptr, ptr, ptr, ptr, ptr, ptr, ptr, ptr, ptr, ptr, ptr, ptr, ptr, ptr, ptr, ptr, ptr, ptr, ptr }

@gdata = external global ptr, align 8
@trackingEnv = internal global ptr null, align 8
@.str = private unnamed_addr constant [53 x i8] c"src/jdk.jdwp.agent/share/native/libjdwp/classTrack.c\00", align 1
@stderr = external global ptr, align 8
@.str.2 = private unnamed_addr constant [17 x i8] c"JDWP exit error \00", align 1
@.str.3 = private unnamed_addr constant [2 x i8] c"\0A\00", align 1
@.str.4 = private unnamed_addr constant [19 x i8] c"%s(%d): %s [%s:%d]\00", align 1
@.str.8 = private unnamed_addr constant [10 x i8] c"signature\00", align 1
@.str.9 = private unnamed_addr constant [6 x i8] c"JVMTI\00", align 1
@.str.10 = private unnamed_addr constant [5 x i8] c"%s()\00", align 1
@.str.11 = private unnamed_addr constant [7 x i8] c"GetTag\00", align 1
@.str.12 = private unnamed_addr constant [40 x i8] c"Unable to GetTag with class trackingEnv\00", align 1
@.str.13 = private unnamed_addr constant [37 x i8] c"strcmp(signature, oldSignature) == 0\00", align 1
@.str.14 = private unnamed_addr constant [7 x i8] c"SetTag\00", align 1
@.str.15 = private unnamed_addr constant [14 x i8] c"gdata->vmDead\00", align 1

; Function Attrs: nounwind uwtable
define internal zeroext i8 @is_wrong_phase(i32 noundef %0) #0 {
  %2 = alloca i8, align 1
  %3 = alloca i32, align 4
  store i32 %0, ptr %3, align 4
  %4 = load i32, ptr %3, align 4
  %5 = icmp eq i32 %4, 112
  br i1 %5, label %6, label %24

6:                                                ; preds = %1
  br label %7

7:                                                ; preds = %6
  %8 = load ptr, ptr @gdata, align 8
  %9 = icmp ne ptr %8, null
  br i1 %9, label %10, label %22

10:                                               ; preds = %7
  %11 = load ptr, ptr @gdata, align 8
  %12 = getelementptr inbounds %struct.BackendGlobalData, ptr %11, i32 0, i32 3
  %13 = load i8, ptr %12, align 1
  %14 = zext i8 %13 to i32
  %15 = icmp ne i32 %14, 0
  br i1 %15, label %16, label %22

16:                                               ; preds = %10
  %17 = load ptr, ptr @gdata, align 8
  %18 = getelementptr inbounds %struct.BackendGlobalData, ptr %17, i32 0, i32 2
  %19 = load volatile i8, ptr %18, align 8
  %20 = icmp ne i8 %19, 0
  br i1 %20, label %22, label %21

21:                                               ; preds = %16
  call void @jdiAssertionFailed(ptr noundef @.str, i32 noundef 79, ptr noundef @.str.15)
  br label %22

22:                                               ; preds = %21, %16, %10, %7
  br label %23

23:                                               ; preds = %22
  store i8 1, ptr %2, align 1
  br label %25

24:                                               ; preds = %1
  store i8 0, ptr %2, align 1
  br label %25

25:                                               ; preds = %24, %23
  %26 = load i8, ptr %2, align 1
  ret i8 %26
}

; Function Attrs: nounwind uwtable
define internal void @addPreparedClass(ptr noundef %0, ptr noundef %1) #0 {
  %3 = alloca ptr, align 8
  %4 = alloca ptr, align 8
  %5 = alloca i32, align 4
  %6 = alloca ptr, align 8
  %7 = alloca i64, align 8
  %8 = alloca ptr, align 8
  store ptr %0, ptr %3, align 8
  store ptr %1, ptr %4, align 8
  %9 = load ptr, ptr %4, align 8
  %10 = call i32 @classSignature(ptr noundef %9, ptr noundef %6, ptr noundef null)
  store i32 %10, ptr %5, align 4
  %11 = load i32, ptr %5, align 4
  %12 = call zeroext i8 @is_wrong_phase(i32 noundef %11)
  %13 = icmp ne i8 %12, 0
  br i1 %13, label %14, label %15

14:                                               ; preds = %2
  br label %115

15:                                               ; preds = %2
  %16 = load i32, ptr %5, align 4
  %17 = icmp ne i32 %16, 0
  br i1 %17, label %18, label %24

18:                                               ; preds = %15
  %19 = load ptr, ptr @stderr, align 8
  %20 = load i32, ptr %5, align 4
  %21 = call ptr @jvmtiErrorText(i32 noundef %20)
  %22 = load i32, ptr %5, align 4
  call void (ptr, ptr, ptr, ptr, ...) @print_message(ptr noundef %19, ptr noundef @.str.2, ptr noundef @.str.3, ptr noundef @.str.4, ptr noundef %21, i32 noundef %22, ptr noundef @.str.8, ptr noundef @.str, i32 noundef 100)
  %23 = load i32, ptr %5, align 4
  call void @debugInit_exit(i32 noundef %23, ptr noundef @.str.8)
  br label %24

24:                                               ; preds = %18, %15
  %25 = load ptr, ptr @gdata, align 8
  %26 = getelementptr inbounds %struct.BackendGlobalData, ptr %25, i32 0, i32 3
  %27 = load i8, ptr %26, align 1
  %28 = icmp ne i8 %27, 0
  br i1 %28, label %29, label %83

29:                                               ; preds = %24
  %30 = load ptr, ptr @gdata, align 8
  %31 = getelementptr inbounds %struct.BackendGlobalData, ptr %30, i32 0, i32 38
  %32 = load i32, ptr %31, align 8
  %33 = and i32 %32, 4
  %34 = icmp ne i32 %33, 0
  br i1 %34, label %35, label %36

35:                                               ; preds = %29
  call void @log_message_begin(ptr noundef @.str.9, ptr noundef @.str, i32 noundef 106)
  call void (ptr, ...) @log_message_end(ptr noundef @.str.10, ptr noundef @.str.11)
  br label %37

36:                                               ; preds = %29
  br label %37

37:                                               ; preds = %36, %35
  %38 = load ptr, ptr @trackingEnv, align 8
  %39 = load ptr, ptr %38, align 8
  %40 = getelementptr inbounds %struct.jvmtiInterface_1_, ptr %39, i32 0, i32 105
  %41 = load ptr, ptr %40, align 8
  %42 = load ptr, ptr @trackingEnv, align 8
  %43 = load ptr, ptr %4, align 8
  %44 = call i32 %41(ptr noundef %42, ptr noundef %43, ptr noundef %7)
  store i32 %44, ptr %5, align 4
  %45 = load i32, ptr %5, align 4
  %46 = call zeroext i8 @is_wrong_phase(i32 noundef %45)
  %47 = icmp ne i8 %46, 0
  br i1 %47, label %48, label %49

48:                                               ; preds = %37
  br label %115

49:                                               ; preds = %37
  %50 = load i32, ptr %5, align 4
  %51 = icmp ne i32 %50, 0
  br i1 %51, label %52, label %58

52:                                               ; preds = %49
  %53 = load ptr, ptr @stderr, align 8
  %54 = load i32, ptr %5, align 4
  %55 = call ptr @jvmtiErrorText(i32 noundef %54)
  %56 = load i32, ptr %5, align 4
  call void (ptr, ptr, ptr, ptr, ...) @print_message(ptr noundef %53, ptr noundef @.str.2, ptr noundef @.str.3, ptr noundef @.str.4, ptr noundef %55, i32 noundef %56, ptr noundef @.str.12, ptr noundef @.str, i32 noundef 111)
  %57 = load i32, ptr %5, align 4
  call void @debugInit_exit(i32 noundef %57, ptr noundef @.str.12)
  br label %58

58:                                               ; preds = %52, %49
  %59 = load i64, ptr %7, align 8
  %60 = icmp ne i64 %59, 0
  br i1 %60, label %61, label %82

61:                                               ; preds = %58
  %62 = load i64, ptr %7, align 8
  %63 = inttoptr i64 %62 to ptr
  store ptr %63, ptr %8, align 8
  br label %64

64:                                               ; preds = %61
  %65 = load ptr, ptr @gdata, align 8
  %66 = icmp ne ptr %65, null
  br i1 %66, label %67, label %79

67:                                               ; preds = %64
  %68 = load ptr, ptr @gdata, align 8
  %69 = getelementptr inbounds %struct.BackendGlobalData, ptr %68, i32 0, i32 3
  %70 = load i8, ptr %69, align 1
  %71 = zext i8 %70 to i32
  %72 = icmp ne i32 %71, 0
  br i1 %72, label %73, label %79

73:                                               ; preds = %67
  %74 = load ptr, ptr %6, align 8
  %75 = load ptr, ptr %8, align 8
  %76 = call i32 @strcmp(ptr noundef %74, ptr noundef %75) #4
  %77 = icmp eq i32 %76, 0
  br i1 %77, label %79, label %78

78:                                               ; preds = %73
  call void @jdiAssertionFailed(ptr noundef @.str, i32 noundef 116, ptr noundef @.str.13)
  br label %79

79:                                               ; preds = %78, %73, %67, %64
  br label %80

80:                                               ; preds = %79
  %81 = load ptr, ptr %6, align 8
  call void @jvmtiDeallocate(ptr noundef %81)
  br label %115

82:                                               ; preds = %58
  br label %83

83:                                               ; preds = %82, %24
  %84 = load ptr, ptr @gdata, align 8
  %85 = getelementptr inbounds %struct.BackendGlobalData, ptr %84, i32 0, i32 38
  %86 = load i32, ptr %85, align 8
  %87 = and i32 %86, 4
  %88 = icmp ne i32 %87, 0
  br i1 %88, label %89, label %90

89:                                               ; preds = %83
  call void @log_message_begin(ptr noundef @.str.9, ptr noundef @.str, i32 noundef 122)
  call void (ptr, ...) @log_message_end(ptr noundef @.str.10, ptr noundef @.str.14)
  br label %91

90:                                               ; preds = %83
  br label %91

91:                                               ; preds = %90, %89
  %92 = load ptr, ptr @trackingEnv, align 8
  %93 = load ptr, ptr %92, align 8
  %94 = getelementptr inbounds %struct.jvmtiInterface_1_, ptr %93, i32 0, i32 106
  %95 = load ptr, ptr %94, align 8
  %96 = load ptr, ptr @trackingEnv, align 8
  %97 = load ptr, ptr %4, align 8
  %98 = load ptr, ptr %6, align 8
  %99 = ptrtoint ptr %98 to i64
  %100 = call i32 %95(ptr noundef %96, ptr noundef %97, i64 noundef %99)
  store i32 %100, ptr %5, align 4
  %101 = load i32, ptr %5, align 4
  %102 = call zeroext i8 @is_wrong_phase(i32 noundef %101)
  %103 = icmp ne i8 %102, 0
  br i1 %103, label %104, label %105

104:                                              ; preds = %91
  br label %115

105:                                              ; preds = %91
  %106 = load i32, ptr %5, align 4
  %107 = icmp ne i32 %106, 0
  br i1 %107, label %108, label %115

108:                                              ; preds = %105
  %109 = load ptr, ptr %6, align 8
  call void @jvmtiDeallocate(ptr noundef %109)
  %110 = load ptr, ptr @stderr, align 8
  %111 = load i32, ptr %5, align 4
  %112 = call ptr @jvmtiErrorText(i32 noundef %111)
  %113 = load i32, ptr %5, align 4
  call void (ptr, ptr, ptr, ptr, ...) @print_message(ptr noundef %110, ptr noundef @.str.2, ptr noundef @.str.3, ptr noundef @.str.4, ptr noundef %112, i32 noundef %113, ptr noundef @.str.14, ptr noundef @.str, i32 noundef 128)
  %114 = load i32, ptr %5, align 4
  call void @debugInit_exit(i32 noundef %114, ptr noundef @.str.14)
  br label %115

115:                                              ; preds = %108, %105, %104, %80, %48, %14
  ret void
}