; Function Attrs: nounwind uwtable
define internal fastcc void @addPreparedClass(ptr noundef %0) unnamed_addr #0 {
  %2 = alloca ptr, align 8
  %3 = alloca i64, align 8
  %4 = call i32 @classSignature(ptr noundef %0, ptr noundef nonnull %2, ptr noundef null) #5
  switch i32 %4, label %14 [
    i32 112, label %5
    i32 0, label %17
  ]

5:                                                ; preds = %1
  %6 = load ptr, ptr @gdata, align 8
  %.not.i = icmp eq ptr %6, null
  br i1 %.not.i, label %is_wrong_phase.exit.thread, label %7

7:                                                ; preds = %5
  %8 = getelementptr inbounds i8, ptr %6, i64 17
  %9 = load i8, ptr %8, align 1
  %.not3.i = icmp eq i8 %9, 0
  br i1 %.not3.i, label %is_wrong_phase.exit.thread, label %10

10:                                               ; preds = %7
  %11 = getelementptr inbounds i8, ptr %6, i64 16
  %12 = load volatile i8, ptr %11, align 8
  %.not4.i = icmp eq i8 %12, 0
  br i1 %.not4.i, label %13, label %is_wrong_phase.exit.thread

13:                                               ; preds = %10
  call void @jdiAssertionFailed(ptr noundef nonnull @.str, i32 noundef 79, ptr noundef nonnull @.str.15) #5
  br label %is_wrong_phase.exit.thread

14:                                               ; preds = %1
  %15 = load ptr, ptr @stderr, align 8
  %16 = call ptr @jvmtiErrorText(i32 noundef %4) #5
  call void (ptr, ptr, ptr, ptr, ...) @print_message(ptr noundef %15, ptr noundef nonnull @.str.2, ptr noundef nonnull @.str.3, ptr noundef nonnull @.str.4, ptr noundef %16, i32 noundef %4, ptr noundef nonnull @.str.8, ptr noundef nonnull @.str, i32 noundef 100) #5
  call void @debugInit_exit(i32 noundef %4, ptr noundef nonnull @.str.8) #5
  br label %17

17:                                               ; preds = %1, %14
  %18 = load ptr, ptr @gdata, align 8
  %19 = getelementptr inbounds i8, ptr %18, i64 17
  %20 = load i8, ptr %19, align 1
  %.not24 = icmp eq i8 %20, 0
  br i1 %.not24, label %58, label %21

21:                                               ; preds = %17
  %22 = getelementptr inbounds i8, ptr %18, i64 528
  %23 = load i32, ptr %22, align 8
  %24 = and i32 %23, 4
  %.not25 = icmp eq i32 %24, 0
  br i1 %.not25, label %26, label %25

25:                                               ; preds = %21
  call void @log_message_begin(ptr noundef nonnull @.str.9, ptr noundef nonnull @.str, i32 noundef 106) #5
  call void (ptr, ...) @log_message_end(ptr noundef nonnull @.str.10, ptr noundef nonnull @.str.11) #5
  br label %26

26:                                               ; preds = %21, %25
  %27 = load ptr, ptr @trackingEnv, align 8
  %28 = load ptr, ptr %27, align 8
  %29 = getelementptr inbounds i8, ptr %28, i64 840
  %30 = load ptr, ptr %29, align 8
  %31 = call i32 %30(ptr noundef nonnull %27, ptr noundef %0, ptr noundef nonnull %3) #5
  switch i32 %31, label %41 [
    i32 112, label %32
    i32 0, label %44
  ]

32:                                               ; preds = %26
  %33 = load ptr, ptr @gdata, align 8
  %.not.i33 = icmp eq ptr %33, null
  br i1 %.not.i33, label %is_wrong_phase.exit.thread, label %34

34:                                               ; preds = %32
  %35 = getelementptr inbounds i8, ptr %33, i64 17
  %36 = load i8, ptr %35, align 1
  %.not3.i34 = icmp eq i8 %36, 0
  br i1 %.not3.i34, label %is_wrong_phase.exit.thread, label %37

37:                                               ; preds = %34
  %38 = getelementptr inbounds i8, ptr %33, i64 16
  %39 = load volatile i8, ptr %38, align 8
  %.not4.i35 = icmp eq i8 %39, 0
  br i1 %.not4.i35, label %40, label %is_wrong_phase.exit.thread

40:                                               ; preds = %37
  call void @jdiAssertionFailed(ptr noundef nonnull @.str, i32 noundef 79, ptr noundef nonnull @.str.15) #5
  br label %is_wrong_phase.exit.thread

41:                                               ; preds = %26
  %42 = load ptr, ptr @stderr, align 8
  %43 = call ptr @jvmtiErrorText(i32 noundef %31) #5
  call void (ptr, ptr, ptr, ptr, ...) @print_message(ptr noundef %42, ptr noundef nonnull @.str.2, ptr noundef nonnull @.str.3, ptr noundef nonnull @.str.4, ptr noundef %43, i32 noundef %31, ptr noundef nonnull @.str.12, ptr noundef nonnull @.str, i32 noundef 111) #5
  call void @debugInit_exit(i32 noundef %31, ptr noundef nonnull @.str.12) #5
  br label %44

44:                                               ; preds = %26, %41
  %45 = load i64, ptr %3, align 8
  %.not28 = icmp eq i64 %45, 0
  %.pre = load ptr, ptr @gdata, align 8
  br i1 %.not28, label %58, label %46

46:                                               ; preds = %44
  %47 = inttoptr i64 %45 to ptr
  %.not30 = icmp eq ptr %.pre, null
  br i1 %.not30, label %56, label %48

48:                                               ; preds = %46
  %49 = getelementptr inbounds i8, ptr %.pre, i64 17
  %50 = load i8, ptr %49, align 1
  %.not31 = icmp eq i8 %50, 0
  br i1 %.not31, label %56, label %51

51:                                               ; preds = %48
  %52 = load ptr, ptr %2, align 8
  %53 = call i32 @strcmp(ptr noundef nonnull dereferenceable(1) %52, ptr noundef nonnull dereferenceable(1) %47) #6
  %54 = icmp eq i32 %53, 0
  br i1 %54, label %56, label %55

55:                                               ; preds = %51
  call void @jdiAssertionFailed(ptr noundef nonnull @.str, i32 noundef 116, ptr noundef nonnull @.str.13) #5
  br label %56

56:                                               ; preds = %46, %48, %51, %55
  %57 = load ptr, ptr %2, align 8
  call void @jvmtiDeallocate(ptr noundef %57) #5
  br label %is_wrong_phase.exit.thread

58:                                               ; preds = %44, %17
  %59 = phi ptr [ %.pre, %44 ], [ %18, %17 ]
  %60 = getelementptr inbounds i8, ptr %59, i64 528
  %61 = load i32, ptr %60, align 8
  %62 = and i32 %61, 4
  %.not29 = icmp eq i32 %62, 0
  br i1 %.not29, label %64, label %63

63:                                               ; preds = %58
  call void @log_message_begin(ptr noundef nonnull @.str.9, ptr noundef nonnull @.str, i32 noundef 122) #5
  call void (ptr, ...) @log_message_end(ptr noundef nonnull @.str.10, ptr noundef nonnull @.str.14) #5
  br label %64

64:                                               ; preds = %58, %63
  %65 = load ptr, ptr @trackingEnv, align 8
  %66 = load ptr, ptr %65, align 8
  %67 = getelementptr inbounds i8, ptr %66, i64 848
  %68 = load ptr, ptr %67, align 8
  %69 = load ptr, ptr %2, align 8
  %70 = ptrtoint ptr %69 to i64
  %71 = call i32 %68(ptr noundef nonnull %65, ptr noundef %0, i64 noundef %70) #5
  switch i32 %71, label %81 [
    i32 112, label %72
    i32 0, label %is_wrong_phase.exit.thread
  ]

72:                                               ; preds = %64
  %73 = load ptr, ptr @gdata, align 8
  %.not.i38 = icmp eq ptr %73, null
  br i1 %.not.i38, label %is_wrong_phase.exit.thread, label %74

74:                                               ; preds = %72
  %75 = getelementptr inbounds i8, ptr %73, i64 17
  %76 = load i8, ptr %75, align 1
  %.not3.i39 = icmp eq i8 %76, 0
  br i1 %.not3.i39, label %is_wrong_phase.exit.thread, label %77

77:                                               ; preds = %74
  %78 = getelementptr inbounds i8, ptr %73, i64 16
  %79 = load volatile i8, ptr %78, align 8
  %.not4.i40 = icmp eq i8 %79, 0
  br i1 %.not4.i40, label %80, label %is_wrong_phase.exit.thread

80:                                               ; preds = %77
  call void @jdiAssertionFailed(ptr noundef nonnull @.str, i32 noundef 79, ptr noundef nonnull @.str.15) #5
  br label %is_wrong_phase.exit.thread

81:                                               ; preds = %64
  %82 = load ptr, ptr %2, align 8
  call void @jvmtiDeallocate(ptr noundef %82) #5
  %83 = load ptr, ptr @stderr, align 8
  %84 = call ptr @jvmtiErrorText(i32 noundef %71) #5
  call void (ptr, ptr, ptr, ptr, ...) @print_message(ptr noundef %83, ptr noundef nonnull @.str.2, ptr noundef nonnull @.str.3, ptr noundef nonnull @.str.4, ptr noundef %84, i32 noundef %71, ptr noundef nonnull @.str.14, ptr noundef nonnull @.str, i32 noundef 128) #5
  call void @debugInit_exit(i32 noundef %71, ptr noundef nonnull @.str.14) #5
  br label %is_wrong_phase.exit.thread

is_wrong_phase.exit.thread:                       ; preds = %64, %80, %77, %74, %72, %40, %37, %34, %32, %13, %10, %7, %5, %81, %56
  ret void
}